target datalayout = "e-m:e-p270:32:32-p271:32:32-p272:64:64-i64:64-i128:128-f80:128-n8:16:32:64-S128"
target triple = "x86_64-pc-linux-gnu"

@_ZN6Symbol11_vm_symbolsE = external global [0 x ptr], align 8
@_ZL15vm_symbol_index = internal global [1170 x i32] zeroinitializer, align 16
@_ZZN9vmSymbols8find_sidEPK6SymbolE8mid_hint = internal global i32 2, align 4

; Function Attrs: mustprogress nounwind uwtable
define linkonce_odr hidden noundef ptr @_ZN9vmSymbols9symbol_atE10vmSymbolID(i32 noundef %0) #1 comdat align 2 {
  %2 = alloca i32, align 4
  store i32 %0, ptr %2, align 4
  %3 = load i32, ptr %2, align 4
  %4 = call noundef ptr @_ZN6Symbol12vm_symbol_atE10vmSymbolID(i32 noundef %3)
  ret ptr %4
}

; Function Attrs: mustprogress nounwind uwtable
define linkonce_odr hidden noundef i32 @_Z14compare_symbolPK6SymbolS1_(ptr noundef %0, ptr noundef %1) #1 comdat {
  %3 = alloca i32, align 4
  %4 = alloca ptr, align 8
  %5 = alloca ptr, align 8
  store ptr %0, ptr %4, align 8
  store ptr %1, ptr %5, align 8
  %6 = load ptr, ptr %4, align 8
  %7 = load ptr, ptr %5, align 8
  %8 = icmp eq ptr %6, %7
  br i1 %8, label %9, label %10

9:                                                ; preds = %2
  store i32 0, ptr %3, align 4
  br label %15

10:                                               ; preds = %2
  %11 = load ptr, ptr %4, align 8
  %12 = load ptr, ptr %5, align 8
  %13 = icmp ugt ptr %11, %12
  %14 = select i1 %13, i32 1, i32 -1
  store i32 %14, ptr %3, align 4
  br label %15

15:                                               ; preds = %10, %9
  %16 = load i32, ptr %3, align 4
  ret i32 %16
}

; Function Attrs: mustprogress nounwind uwtable
define linkonce_odr hidden noundef ptr @_ZN6Symbol12vm_symbol_atE10vmSymbolID(i32 noundef %0) #1 comdat align 2 {
  %2 = alloca i32, align 4
  store i32 %0, ptr %2, align 4
  %3 = load i32, ptr %2, align 4
  %4 = sext i32 %3 to i64
  %5 = getelementptr inbounds [0 x ptr], ptr @_ZN6Symbol11_vm_symbolsE, i64 0, i64 %4
  %6 = load ptr, ptr %5, align 8
  ret ptr %6
}

; Function Attrs: mustprogress nounwind uwtable
define hidden noundef i32 @_ZN9vmSymbols8find_sidEPK6Symbol(ptr noundef %0) #1 align 2 {
  %2 = alloca ptr, align 8
  %3 = alloca i32, align 4
  %4 = alloca i32, align 4
  %5 = alloca i32, align 4
  %6 = alloca i32, align 4
  %7 = alloca i32, align 4
  %8 = alloca i32, align 4
  store ptr %0, ptr %2, align 8
  store i32 1, ptr %3, align 4
  store i32 1169, ptr %4, align 4
  store i32 0, ptr %5, align 4
  %9 = load i32, ptr %3, align 4
  %10 = sext i32 %9 to i64
  %11 = getelementptr inbounds [1170 x i32], ptr @_ZL15vm_symbol_index, i64 0, i64 %10
  %12 = load i32, ptr %11, align 4
  store i32 %12, ptr %6, align 4
  %13 = load ptr, ptr %2, align 8
  %14 = load i32, ptr %6, align 4
  %15 = call noundef ptr @_ZN6Symbol12vm_symbol_atE10vmSymbolID(i32 noundef %14)
  %16 = call noundef i32 @_Z14compare_symbolPK6SymbolS1_(ptr noundef %13, ptr noundef %15)
  store i32 %16, ptr %7, align 4
  %17 = load i32, ptr %7, align 4
  %18 = icmp sle i32 %17, 0
  br i1 %18, label %19, label %25

19:                                               ; preds = %1
  %20 = load i32, ptr %7, align 4
  %21 = icmp eq i32 %20, 0
  br i1 %21, label %22, label %24

22:                                               ; preds = %19
  %23 = load i32, ptr %6, align 4
  store i32 %23, ptr %5, align 4
  br label %24

24:                                               ; preds = %22, %19
  br label %82

25:                                               ; preds = %1
  %26 = load i32, ptr %4, align 4
  %27 = sext i32 %26 to i64
  %28 = getelementptr inbounds [1170 x i32], ptr @_ZL15vm_symbol_index, i64 0, i64 %27
  %29 = load i32, ptr %28, align 4
  store i32 %29, ptr %6, align 4
  %30 = load ptr, ptr %2, align 8
  %31 = load i32, ptr %6, align 4
  %32 = call noundef ptr @_ZN9vmSymbols9symbol_atE10vmSymbolID(i32 noundef %31)
  %33 = call noundef i32 @_Z14compare_symbolPK6SymbolS1_(ptr noundef %30, ptr noundef %32)
  store i32 %33, ptr %7, align 4
  %34 = load i32, ptr %7, align 4
  %35 = icmp sge i32 %34, 0
  br i1 %35, label %36, label %42

36:                                               ; preds = %25
  %37 = load i32, ptr %7, align 4
  %38 = icmp eq i32 %37, 0
  br i1 %38, label %39, label %41

39:                                               ; preds = %36
  %40 = load i32, ptr %6, align 4
  store i32 %40, ptr %5, align 4
  br label %41

41:                                               ; preds = %39, %36
  br label %81

42:                                               ; preds = %25
  %43 = load i32, ptr %3, align 4
  %44 = add nsw i32 %43, 1
  store i32 %44, ptr %3, align 4
  %45 = load i32, ptr %4, align 4
  %46 = add nsw i32 %45, -1
  store i32 %46, ptr %4, align 4
  %47 = load i32, ptr @_ZZN9vmSymbols8find_sidEPK6SymbolE8mid_hint, align 4
  store i32 %47, ptr %8, align 4
  br label %48

48:                                               ; preds = %75, %42
  %49 = load i32, ptr %4, align 4
  %50 = load i32, ptr %3, align 4
  %51 = icmp sge i32 %49, %50
  br i1 %51, label %52, label %80

52:                                               ; preds = %48
  %53 = load i32, ptr %8, align 4
  %54 = sext i32 %53 to i64
  %55 = getelementptr inbounds [1170 x i32], ptr @_ZL15vm_symbol_index, i64 0, i64 %54
  %56 = load i32, ptr %55, align 4
  store i32 %56, ptr %6, align 4
  %57 = load ptr, ptr %2, align 8
  %58 = load i32, ptr %6, align 4
  %59 = call noundef ptr @_ZN9vmSymbols9symbol_atE10vmSymbolID(i32 noundef %58)
  %60 = call noundef i32 @_Z14compare_symbolPK6SymbolS1_(ptr noundef %57, ptr noundef %59)
  store i32 %60, ptr %7, align 4
  %61 = load i32, ptr %7, align 4
  %62 = icmp eq i32 %61, 0
  br i1 %62, label %63, label %66

63:                                               ; preds = %52
  %64 = load i32, ptr %8, align 4
  store i32 %64, ptr @_ZZN9vmSymbols8find_sidEPK6SymbolE8mid_hint, align 4
  %65 = load i32, ptr %6, align 4
  store i32 %65, ptr %5, align 4
  br label %80

66:                                               ; preds = %52
  %67 = load i32, ptr %7, align 4
  %68 = icmp slt i32 %67, 0
  br i1 %68, label %69, label %72

69:                                               ; preds = %66
  %70 = load i32, ptr %8, align 4
  %71 = sub nsw i32 %70, 1
  store i32 %71, ptr %4, align 4
  br label %75

72:                                               ; preds = %66
  %73 = load i32, ptr %8, align 4
  %74 = add nsw i32 %73, 1
  store i32 %74, ptr %3, align 4
  br label %75

75:                                               ; preds = %72, %69
  %76 = load i32, ptr %4, align 4
  %77 = load i32, ptr %3, align 4
  %78 = add nsw i32 %76, %77
  %79 = sdiv i32 %78, 2
  store i32 %79, ptr %8, align 4
  br label %48, !llvm.loop !10

80:                                               ; preds = %63, %48
  br label %81

81:                                               ; preds = %80, %41
  br label %82

82:                                               ; preds = %81, %24
  %83 = load i32, ptr %5, align 4
  ret i32 %83
}

; Function Attrs: mustprogress nounwind uwtable
define linkonce_odr hidden noundef ptr @_ZN11SymbolTable5probeEPKci(ptr noundef %0, i32 noundef %1) #1 comdat align 2 {
  %3 = alloca ptr, align 8
  %4 = alloca i32, align 4
  %5 = alloca i32, align 4
  store ptr %0, ptr %3, align 8
  store i32 %1, ptr %4, align 4
  %6 = load ptr, ptr %3, align 8
  %7 = load i32, ptr %4, align 4
  %8 = call noundef ptr @_ZN11SymbolTable11lookup_onlyEPKciRj(ptr noundef %6, i32 noundef %7, ptr noundef nonnull align 4 dereferenceable(4) %5)
  ret ptr %8
}

; Function Attrs: mustprogress nounwind uwtable
define hidden noundef i32 @_ZN9vmSymbols8find_sidEPKc(ptr noundef %0) #1 align 2 {
  %2 = alloca i32, align 4
  %3 = alloca ptr, align 8
  %4 = alloca ptr, align 8
  store ptr %0, ptr %3, align 8
  %5 = load ptr, ptr %3, align 8
  %6 = load ptr, ptr %3, align 8
  %7 = call i64 @strlen(ptr noundef %6) #6
  %8 = trunc i64 %7 to i32
  %9 = call noundef ptr @_ZN11SymbolTable5probeEPKci(ptr noundef %5, i32 noundef %8)
  store ptr %9, ptr %4, align 8
  %10 = load ptr, ptr %4, align 8
  %11 = icmp eq ptr %10, null
  br i1 %11, label %12, label %13

12:                                               ; preds = %1
  store i32 0, ptr %2, align 4
  br label %16

13:                                               ; preds = %1
  %14 = load ptr, ptr %4, align 8
  %15 = call noundef i32 @_ZN9vmSymbols8find_sidEPK6Symbol(ptr noundef %14)
  store i32 %15, ptr %2, align 4
  br label %16

16:                                               ; preds = %13, %12
  %17 = load i32, ptr %2, align 4
  ret i32 %17
}