; Function Attrs: mustprogress nounwind uwtable
define hidden noundef i32 @_ZN9vmSymbols8find_sidEPKc(ptr noundef %0) local_unnamed_addr #0 align 2 {
  %2 = alloca i32, align 4
  %3 = tail call i64 @strlen(ptr noundef nonnull dereferenceable(1) %0) #10
  %4 = trunc i64 %3 to i32
  call void @llvm.lifetime.start.p0(i64 4, ptr nonnull %2)
  %5 = call noundef ptr @_ZN11SymbolTable11lookup_onlyEPKciRj(ptr noundef %0, i32 noundef %4, ptr noundef nonnull align 4 dereferenceable(4) %2) #9
  call void @llvm.lifetime.end.p0(i64 4, ptr nonnull %2)
  %6 = icmp eq ptr %5, null
  br i1 %6, label %_ZN9vmSymbols8find_sidEPK6Symbol.exit, label %7

7:                                                ; preds = %1
  %8 = load i32, ptr getelementptr inbounds (i8, ptr @_ZL15vm_symbol_index, i64 4), align 4
  %9 = sext i32 %8 to i64
  %10 = getelementptr inbounds [0 x ptr], ptr @_ZN6Symbol11_vm_symbolsE, i64 0, i64 %9
  %11 = load ptr, ptr %10, align 8
  %.not37.i = icmp ult ptr %11, %5
  br i1 %.not37.i, label %14, label %12

12:                                               ; preds = %7
  %13 = icmp eq ptr %11, %5
  %spec.select.i = select i1 %13, i32 %8, i32 0
  br label %_ZN9vmSymbols8find_sidEPK6Symbol.exit

14:                                               ; preds = %7
  %15 = load i32, ptr getelementptr inbounds (i8, ptr @_ZL15vm_symbol_index, i64 4676), align 4
  %16 = sext i32 %15 to i64
  %17 = getelementptr inbounds [0 x ptr], ptr @_ZN6Symbol11_vm_symbolsE, i64 0, i64 %16
  %18 = load ptr, ptr %17, align 8
  %narrow.not.i = icmp ugt ptr %18, %5
  br i1 %narrow.not.i, label %20, label %19

19:                                               ; preds = %14
  %.not38.i = icmp eq ptr %18, %5
  %spec.select34.i = select i1 %.not38.i, i32 %15, i32 0
  br label %_ZN9vmSymbols8find_sidEPK6Symbol.exit

20:                                               ; preds = %14
  %21 = load i32, ptr @_ZZN9vmSymbols8find_sidEPK6SymbolE8mid_hint, align 4
  br label %22

22:                                               ; preds = %31, %20
  %.043.i = phi i32 [ %21, %20 ], [ %35, %31 ]
  %.02842.i = phi i32 [ 1168, %20 ], [ %.1.i, %31 ]
  %.02941.i = phi i32 [ 2, %20 ], [ %.130.i, %31 ]
  %23 = sext i32 %.043.i to i64
  %24 = getelementptr inbounds [1170 x i32], ptr @_ZL15vm_symbol_index, i64 0, i64 %23
  %25 = load i32, ptr %24, align 4
  %26 = sext i32 %25 to i64
  %27 = getelementptr inbounds [0 x ptr], ptr @_ZN6Symbol11_vm_symbolsE, i64 0, i64 %26
  %28 = load ptr, ptr %27, align 8
  %29 = icmp eq ptr %28, %5
  br i1 %29, label %30, label %31

30:                                               ; preds = %22
  store i32 %.043.i, ptr @_ZZN9vmSymbols8find_sidEPK6SymbolE8mid_hint, align 4
  br label %_ZN9vmSymbols8find_sidEPK6Symbol.exit

31:                                               ; preds = %22
  %.not39.i = icmp ult ptr %28, %5
  %32 = add nsw i32 %.043.i, -1
  %33 = add nsw i32 %.043.i, 1
  %.130.i = select i1 %.not39.i, i32 %33, i32 %.02941.i
  %.1.i = select i1 %.not39.i, i32 %.02842.i, i32 %32
  %34 = add nsw i32 %.1.i, %.130.i
  %35 = sdiv i32 %34, 2
  %.not.i = icmp slt i32 %.1.i, %.130.i
  br i1 %.not.i, label %_ZN9vmSymbols8find_sidEPK6Symbol.exit, label %22, !llvm.loop !10

_ZN9vmSymbols8find_sidEPK6Symbol.exit:            ; preds = %31, %30, %19, %12, %1
  %.0 = phi i32 [ 0, %1 ], [ %25, %30 ], [ %spec.select.i, %12 ], [ %spec.select34.i, %19 ], [ 0, %31 ]
  ret i32 %.0
}